target datalayout = "e-m:e-p270:32:32-p271:32:32-p272:64:64-i64:64-i128:128-f80:128-n8:16:32:64-S128"
target triple = "x86_64-pc-linux-gnu"

%struct.gmx_ana_index_t = type { i32, ptr, i32 }

; Function Attrs: mustprogress nounwind uwtable
define noundef i32 @_Z29gmx_ana_index_difference_sizeP15gmx_ana_index_tS0_(ptr noundef %0, ptr noundef %1) #1 {
  %3 = alloca ptr, align 8
  %4 = alloca ptr, align 8
  %5 = alloca i32, align 4
  %6 = alloca i32, align 4
  %7 = alloca i32, align 4
  store ptr %0, ptr %3, align 8, !tbaa !232
  store ptr %1, ptr %4, align 8, !tbaa !232
  call void @llvm.lifetime.start.p0(i64 4, ptr %5) #19
  call void @llvm.lifetime.start.p0(i64 4, ptr %6) #19
  call void @llvm.lifetime.start.p0(i64 4, ptr %7) #19
  store i32 0, ptr %7, align 4, !tbaa !114
  store i32 0, ptr %6, align 4, !tbaa !114
  store i32 0, ptr %5, align 4, !tbaa !114
  br label %8

8:                                                ; preds = %68, %2
  %9 = load i32, ptr %5, align 4, !tbaa !114
  %10 = load ptr, ptr %3, align 8, !tbaa !232
  %11 = getelementptr inbounds nuw %struct.gmx_ana_index_t, ptr %10, i32 0, i32 0
  %12 = load i32, ptr %11, align 8, !tbaa !234
  %13 = icmp slt i32 %9, %12
  br i1 %13, label %14, label %71

14:                                               ; preds = %8
  br label %15

15:                                               ; preds = %39, %14
  %16 = load i32, ptr %6, align 4, !tbaa !114
  %17 = load ptr, ptr %4, align 8, !tbaa !232
  %18 = getelementptr inbounds nuw %struct.gmx_ana_index_t, ptr %17, i32 0, i32 0
  %19 = load i32, ptr %18, align 8, !tbaa !234
  %20 = icmp slt i32 %16, %19
  br i1 %20, label %21, label %37

21:                                               ; preds = %15
  %22 = load ptr, ptr %4, align 8, !tbaa !232
  %23 = getelementptr inbounds nuw %struct.gmx_ana_index_t, ptr %22, i32 0, i32 1
  %24 = load ptr, ptr %23, align 8, !tbaa !236
  %25 = load i32, ptr %6, align 4, !tbaa !114
  %26 = sext i32 %25 to i64
  %27 = getelementptr inbounds i32, ptr %24, i64 %26
  %28 = load i32, ptr %27, align 4, !tbaa !114
  %29 = load ptr, ptr %3, align 8, !tbaa !232
  %30 = getelementptr inbounds nuw %struct.gmx_ana_index_t, ptr %29, i32 0, i32 1
  %31 = load ptr, ptr %30, align 8, !tbaa !236
  %32 = load i32, ptr %5, align 4, !tbaa !114
  %33 = sext i32 %32 to i64
  %34 = getelementptr inbounds i32, ptr %31, i64 %33
  %35 = load i32, ptr %34, align 4, !tbaa !114
  %36 = icmp slt i32 %28, %35
  br label %37

37:                                               ; preds = %21, %15
  %38 = phi i1 [ false, %15 ], [ %36, %21 ]
  br i1 %38, label %39, label %42

39:                                               ; preds = %37
  %40 = load i32, ptr %6, align 4, !tbaa !114
  %41 = add nsw i32 %40, 1
  store i32 %41, ptr %6, align 4, !tbaa !114
  br label %15, !llvm.loop !338

42:                                               ; preds = %37
  %43 = load i32, ptr %6, align 4, !tbaa !114
  %44 = load ptr, ptr %4, align 8, !tbaa !232
  %45 = getelementptr inbounds nuw %struct.gmx_ana_index_t, ptr %44, i32 0, i32 0
  %46 = load i32, ptr %45, align 8, !tbaa !234
  %47 = icmp eq i32 %43, %46
  br i1 %47, label %64, label %48

48:                                               ; preds = %42
  %49 = load ptr, ptr %4, align 8, !tbaa !232
  %50 = getelementptr inbounds nuw %struct.gmx_ana_index_t, ptr %49, i32 0, i32 1
  %51 = load ptr, ptr %50, align 8, !tbaa !236
  %52 = load i32, ptr %6, align 4, !tbaa !114
  %53 = sext i32 %52 to i64
  %54 = getelementptr inbounds i32, ptr %51, i64 %53
  %55 = load i32, ptr %54, align 4, !tbaa !114
  %56 = load ptr, ptr %3, align 8, !tbaa !232
  %57 = getelementptr inbounds nuw %struct.gmx_ana_index_t, ptr %56, i32 0, i32 1
  %58 = load ptr, ptr %57, align 8, !tbaa !236
  %59 = load i32, ptr %5, align 4, !tbaa !114
  %60 = sext i32 %59 to i64
  %61 = getelementptr inbounds i32, ptr %58, i64 %60
  %62 = load i32, ptr %61, align 4, !tbaa !114
  %63 = icmp ne i32 %55, %62
  br i1 %63, label %64, label %67

64:                                               ; preds = %48, %42
  %65 = load i32, ptr %7, align 4, !tbaa !114
  %66 = add nsw i32 %65, 1
  store i32 %66, ptr %7, align 4, !tbaa !114
  br label %67

67:                                               ; preds = %64, %48
  br label %68

68:                                               ; preds = %67
  %69 = load i32, ptr %5, align 4, !tbaa !114
  %70 = add nsw i32 %69, 1
  store i32 %70, ptr %5, align 4, !tbaa !114
  br label %8, !llvm.loop !339

71:                                               ; preds = %8
  %72 = load i32, ptr %7, align 4, !tbaa !114
  call void @llvm.lifetime.end.p0(i64 4, ptr %7) #19
  call void @llvm.lifetime.end.p0(i64 4, ptr %6) #19
  call void @llvm.lifetime.end.p0(i64 4, ptr %5) #19
  ret i32 %72
}