; Function Attrs: mustprogress nofree norecurse nosync nounwind willreturn memory(read, inaccessiblemem: none) uwtable
define noundef i32 @_Z29gmx_ana_index_difference_sizeP15gmx_ana_index_tS0_(ptr noundef readonly captures(none) %0, ptr noundef readonly captures(none) %1) local_unnamed_addr #18 {
  %3 = load i32, ptr %0, align 8, !tbaa !73
  %4 = icmp sgt i32 %3, 0
  br i1 %4, label %.preheader.lr.ph, label %._crit_edge

.preheader.lr.ph:                                 ; preds = %2
  %5 = getelementptr inbounds nuw i8, ptr %1, i64 8
  %6 = load i32, ptr %1, align 8, !tbaa !73
  %7 = getelementptr inbounds nuw i8, ptr %0, i64 8
  %8 = sext i32 %6 to i64
  %wide.trip.count = zext nneg i32 %3 to i64
  br label %.preheader

.preheader:                                       ; preds = %.preheader.lr.ph, %31
  %indvars.iv30 = phi i64 [ 0, %.preheader.lr.ph ], [ %indvars.iv.next31, %31 ]
  %.027 = phi i32 [ 0, %.preheader.lr.ph ], [ %.1, %31 ]
  %.01726 = phi i32 [ 0, %.preheader.lr.ph ], [ %.118.lcssa36, %31 ]
  %9 = icmp slt i32 %.01726, %6
  br i1 %9, label %.lr.ph, label %.critedge

.lr.ph:                                           ; preds = %.preheader
  %10 = load ptr, ptr %5, align 8, !tbaa !108
  %11 = load ptr, ptr %7, align 8, !tbaa !108
  %12 = getelementptr inbounds nuw i32, ptr %11, i64 %indvars.iv30
  %13 = load i32, ptr %12, align 4, !tbaa !36
  %14 = sext i32 %.01726 to i64
  br label %15

15:                                               ; preds = %.lr.ph, %19
  %indvars.iv = phi i64 [ %14, %.lr.ph ], [ %indvars.iv.next, %19 ]
  %16 = getelementptr inbounds i32, ptr %10, i64 %indvars.iv
  %17 = load i32, ptr %16, align 4, !tbaa !36
  %18 = icmp slt i32 %17, %13
  br i1 %18, label %19, label %.critedge.loopexit

19:                                               ; preds = %15
  %indvars.iv.next = add nsw i64 %indvars.iv, 1
  %exitcond.not = icmp eq i64 %indvars.iv.next, %8
  br i1 %exitcond.not, label %.critedge.thread, label %15, !llvm.loop !135

.critedge.loopexit:                               ; preds = %15
  %20 = trunc nsw i64 %indvars.iv to i32
  br label %.critedge

.critedge:                                        ; preds = %.critedge.loopexit, %.preheader
  %.118.lcssa = phi i32 [ %.01726, %.preheader ], [ %20, %.critedge.loopexit ]
  %21 = icmp eq i32 %.118.lcssa, %6
  br i1 %21, label %.critedge.thread, label %22

22:                                               ; preds = %.critedge
  %23 = load ptr, ptr %5, align 8, !tbaa !108
  %24 = sext i32 %.118.lcssa to i64
  %25 = getelementptr inbounds i32, ptr %23, i64 %24
  %26 = load i32, ptr %25, align 4, !tbaa !36
  %27 = load ptr, ptr %7, align 8, !tbaa !108
  %28 = getelementptr inbounds nuw i32, ptr %27, i64 %indvars.iv30
  %29 = load i32, ptr %28, align 4, !tbaa !36
  %.not = icmp eq i32 %26, %29
  br i1 %.not, label %31, label %.critedge.thread

.critedge.thread:                                 ; preds = %19, %22, %.critedge
  %.118.lcssa35 = phi i32 [ %.118.lcssa, %22 ], [ %.118.lcssa, %.critedge ], [ %6, %19 ]
  %30 = add nsw i32 %.027, 1
  br label %31

31:                                               ; preds = %22, %.critedge.thread
  %.118.lcssa36 = phi i32 [ %.118.lcssa35, %.critedge.thread ], [ %.118.lcssa, %22 ]
  %.1 = phi i32 [ %30, %.critedge.thread ], [ %.027, %22 ]
  %indvars.iv.next31 = add nuw nsw i64 %indvars.iv30, 1
  %exitcond33.not = icmp eq i64 %indvars.iv.next31, %wide.trip.count
  br i1 %exitcond33.not, label %._crit_edge, label %.preheader, !llvm.loop !136

._crit_edge:                                      ; preds = %31, %2
  %.0.lcssa = phi i32 [ 0, %2 ], [ %.1, %31 ]
  ret i32 %.0.lcssa
}